Certificate:
    Data:
        Version: 3 (0x2)
        Serial Number: 50 (0x32)
        Signature Algorithm: sha256WithRSAEncryption
        Issuer: C=US, O=Google, OU=Enterprise, CN=Enterprise Subordinate CA
        Validity
            Not Before: Dec 31 17:05:04 2022 GMT
            Not After : Apr  9 17:05:04 2025 GMT
        Subject: C=US, O=Google, OU=Enterprise, CN=generate.domain.com
        Subject Public Key Info:
            Public Key Algorithm: rsaEncryption
                Public-Key: (2048 bit)
                Modulus:
                    00:e1:e3:f7:18:17:6f:6a:7e:7f:3c:a2:c5:1b:78:
                    42:9a:5c:86:94:8b:a6:f5:6a:98:99:b4:4f:fd:59:
                    6f:b6:c0:a8:ab:91:0c:72:5d:c2:b5:bc:d3:5d:4f:
                    bd:df:22:f7:33:ca:43:aa:64:3a:cd:7c:85:71:76:
                    2e:ac:17:ea:76:0b:9c:14:eb:81:8f:de:11:67:e9:
                    6c:d9:24:5a:02:98:be:88:2c:98:0a:2c:fb:8c:95:
                    02:cc:c8:d1:d1:03:e2:9e:a5:1f:3a:c1:1f:9e:c7:
                    b4:7a:93:42:4e:fe:31:e2:a7:3d:a7:9d:d6:58:9b:
                    8c:42:f9:f4:dc:63:18:29:5f:49:47:ac:de:1f:f1:
                    aa:7c:a1:cc:94:61:17:c9:59:19:c0:fe:b1:0a:43:
                    42:be:8f:8a:90:4a:11:ad:9f:57:a4:47:30:c4:60:
                    05:5c:be:90:84:64:a0:7d:33:4f:75:af:22:40:89:
                    03:3d:0f:ec:c3:7c:37:7a:58:c3:9d:67:bd:43:2e:
                    3b:50:79:b7:13:34:d1:eb:f8:06:ca:7a:97:79:c7:
                    33:fb:a6:3d:56:9b:75:a1:a3:0e:8d:6a:0b:91:fa:
                    96:be:61:cb:3a:f3:8f:25:0b:a9:6a:a1:31:42:41:
                    9a:6c:b0:33:17:99:02:c3:7a:4b:86:fe:3c:18:43:
                    22:ad
                Exponent: 65537 (0x10001)
        X509v3 extensions:
            X509v3 Key Usage: critical
                Digital Signature
            X509v3 Basic Constraints: 
                CA:FALSE
            X509v3 Extended Key Usage: 
                TLS Web Server Authentication
            X509v3 Subject Key Identifier: 
                6A:EC:84:DD:E0:73:7E:52:CF:0D:55:F0:76:07:49:25:75:73:11:DC
            X509v3 Authority Key Identifier: 
                B7:BA:B0:02:A1:E7:BE:34:C6:C1:05:5C:66:78:E5:BB:53:5D:A1:54
            Authority Information Access: 
                CA Issuers - URI:http://pki.esodemoapp2.com/ca/tls-ca.cer
            X509v3 CRL Distribution Points: 
                Full Name:
                  URI:http://pki.esodemoapp2.com/ca/tls-ca.crl
            X509v3 Subject Alternative Name: 
                DNS:generate.domain.com
    Signature Algorithm: sha256WithRSAEncryption
    Signature Value:
        8b:4f:39:46:cd:91:8c:05:9b:a4:ba:83:e1:3b:79:5a:61:3f:
        fb:c1:84:35:32:05:4c:ad:ae:f3:e6:31:16:64:b7:52:89:41:
        35:30:a5:e9:7a:b9:72:f7:41:51:34:61:92:96:a2:b2:4b:c2:
        e4:b1:76:38:8e:35:10:ac:e4:3d:52:71:c9:ec:2e:42:95:36:
        7b:c4:b9:db:d3:a6:da:00:41:b9:e0:7c:37:8f:98:ae:45:a7:
        e0:cc:cd:8a:47:eb:09:b4:c3:7c:85:1c:40:78:cd:9f:ef:9c:
        58:dd:d9:e5:24:6d:68:e7:44:0a:75:d8:cd:c9:ec:15:fc:cc:
        92:f8:5e:aa:9a:a2:a4:98:60:4c:ec:06:16:ed:b9:d5:d6:c5:
        42:a5:fc:74:22:85:bf:c1:fd:7b:96:15:86:44:d0:de:ec:dc:
        81:99:4b:b2:73:bb:49:f5:a2:ee:8d:e6:55:b4:76:b0:19:57:
        b5:a2:a9:9f:8f:93:1f:0e:09:4f:6e:a6:c0:c3:09:2e:bd:61:
        73:81:28:33:08:ec:1d:2d:92:17:f6:c8:ef:1c:b5:0b:7f:6b:
        0b:10:73:88:ab:d1:e3:33:a7:0d:18:5b:c0:56:8f:5a:71:c3:
        b8:41:1a:a4:8c:90:2d:72:09:dd:c7:52:f1:67:e3:ac:c3:4e:
        63:07:96:1b
-----BEGIN CERTIFICATE-----
MIIEOjCCAyKgAwIBAgIBMjANBgkqhkiG9w0BAQsFADBXMQswCQYDVQQGEwJVUzEP
MA0GA1UECgwGR29vZ2xlMRMwEQYDVQQLDApFbnRlcnByaXNlMSIwIAYDVQQDDBlF
bnRlcnByaXNlIFN1Ym9yZGluYXRlIENBMB4XDTIyMTIzMTE3MDUwNFoXDTI1MDQw
OTE3MDUwNFowUTELMAkGA1UEBhMCVVMxDzANBgNVBAoMBkdvb2dsZTETMBEGA1UE
CwwKRW50ZXJwcmlzZTEcMBoGA1UEAwwTZ2VuZXJhdGUuZG9tYWluLmNvbTCCASIw
DQYJKoZIhvcNAQEBBQADggEPADCCAQoCggEBAOHj9xgXb2p+fzyixRt4QppchpSL
pvVqmJm0T/1Zb7bAqKuRDHJdwrW8011Pvd8i9zPKQ6pkOs18hXF2LqwX6nYLnBTr
gY/eEWfpbNkkWgKYvogsmAos+4yVAszI0dED4p6lHzrBH57HtHqTQk7+MeKnPaed
1libjEL59NxjGClfSUes3h/xqnyhzJRhF8lZGcD+sQpDQr6PipBKEa2fV6RHMMRg
BVy+kIRkoH0zT3WvIkCJAz0P7MN8N3pYw51nvUMuO1B5txM00ev4Bsp6l3nHM/um
PVabdaGjDo1qC5H6lr5hyzrzjyULqWqhMUJBmmywMxeZAsN6S4b+PBhDIq0CAwEA
AaOCARUwggERMA4GA1UdDwEB/wQEAwIHgDAJBgNVHRMEAjAAMBMGA1UdJQQMMAoG
CCsGAQUFBwMBMB0GA1UdDgQWBBRq7ITd4HN+Us8NVfB2B0kldXMR3DAfBgNVHSME
GDAWgBS3urACoee+NMbBBVxmeOW7U12hVDBEBggrBgEFBQcBAQQ4MDYwNAYIKwYB
BQUHMAKGKGh0dHA6Ly9wa2kuZXNvZGVtb2FwcDIuY29tL2NhL3Rscy1jYS5jZXIw
OQYDVR0fBDIwMDAuoCygKoYoaHR0cDovL3BraS5lc29kZW1vYXBwMi5jb20vY2Ev
dGxzLWNhLmNybDAeBgNVHREEFzAVghNnZW5lcmF0ZS5kb21haW4uY29tMA0GCSqG
SIb3DQEBCwUAA4IBAQCLTzlGzZGMBZukuoPhO3laYT/7wYQ1MgVMra7z5jEWZLdS
iUE1MKXperly90FRNGGSlqKyS8LksXY4jjUQrOQ9UnHJ7C5ClTZ7xLnb06baAEG5
4Hw3j5iuRafgzM2KR+sJtMN8hRxAeM2f75xY3dnlJG1o50QKddjNyewV/MyS+F6q
mqKkmGBM7AYW7bnV1sVCpfx0IoW/wf17lhWGRNDe7NyBmUuyc7tJ9aLujeZVtHaw
GVe1oqmfj5MfDglPbqbAwwkuvWFzgSgzCOwdLZIX9sjvHLULf2sLEHOIq9HjM6cN
GFvAVo9accO4QRqkjJAtcgndx1LxZ+Osw05jB5Yb
-----END CERTIFICATE-----
